target datalayout = "e-m:e-p270:32:32-p271:32:32-p272:64:64-i64:64-i128:128-f80:128-n8:16:32:64-S128"
target triple = "x86_64-pc-linux-gnu"

%struct.buf_t = type { i32, ptr, i32, i32, i8, i8 }

@.str.68 = private unnamed_addr constant [22 x i8] c"unknown purge type %d\00", align 1

; Function Attrs: nounwind uwtable
define internal i32 @_purge_agent_list_req(ptr noundef %0, ptr noundef %1) #0 {
  %3 = alloca i32, align 4
  %4 = alloca ptr, align 8
  %5 = alloca ptr, align 8
  %6 = alloca i16, align 2
  %7 = alloca i32, align 4
  %8 = alloca ptr, align 8
  %9 = alloca i16, align 2
  %10 = alloca i32, align 4
  store ptr %0, ptr %4, align 8
  store ptr %1, ptr %5, align 8
  call void @llvm.lifetime.start.p0(i64 2, ptr %6) #9
  call void @llvm.lifetime.start.p0(i64 4, ptr %7) #9
  call void @llvm.lifetime.start.p0(i64 8, ptr %8) #9
  %11 = load ptr, ptr %4, align 8
  store ptr %11, ptr %8, align 8
  call void @llvm.lifetime.start.p0(i64 2, ptr %9) #9
  %12 = load ptr, ptr %5, align 8
  %13 = load i16, ptr %12, align 2
  store i16 %13, ptr %9, align 2
  %14 = load ptr, ptr %8, align 8
  %15 = getelementptr inbounds nuw %struct.buf_t, ptr %14, i32 0, i32 3
  %16 = load i32, ptr %15, align 4
  store i32 %16, ptr %7, align 4
  %17 = load i32, ptr %7, align 4
  %18 = icmp ult i32 %17, 2
  br i1 %18, label %19, label %20

19:                                               ; preds = %2
  store i32 0, ptr %3, align 4
  store i32 1, ptr %10, align 4
  br label %51

20:                                               ; preds = %2
  %21 = load ptr, ptr %8, align 8
  %22 = getelementptr inbounds nuw %struct.buf_t, ptr %21, i32 0, i32 3
  store i32 0, ptr %22, align 4
  %23 = load ptr, ptr %8, align 8
  %24 = call i32 @slurm_unpack16(ptr noundef %6, ptr noundef %23)
  %25 = load i32, ptr %7, align 4
  %26 = load ptr, ptr %8, align 8
  %27 = getelementptr inbounds nuw %struct.buf_t, ptr %26, i32 0, i32 3
  store i32 %25, ptr %27, align 4
  %28 = load i16, ptr %9, align 2
  %29 = zext i16 %28 to i32
  switch i32 %29, label %46 [
    i32 1442, label %30
    i32 1425, label %40
  ]

30:                                               ; preds = %20
  %31 = load i16, ptr %6, align 2
  %32 = zext i16 %31 to i32
  %33 = icmp eq i32 %32, 1442
  br i1 %33, label %38, label %34

34:                                               ; preds = %30
  %35 = load i16, ptr %6, align 2
  %36 = zext i16 %35 to i32
  %37 = icmp eq i32 %36, 1441
  br i1 %37, label %38, label %39

38:                                               ; preds = %34, %30
  store i32 1, ptr %3, align 4
  store i32 1, ptr %10, align 4
  br label %51

39:                                               ; preds = %34
  br label %50

40:                                               ; preds = %20
  %41 = load i16, ptr %6, align 2
  %42 = zext i16 %41 to i32
  %43 = icmp eq i32 %42, 1425
  br i1 %43, label %44, label %45

44:                                               ; preds = %40
  store i32 1, ptr %3, align 4
  store i32 1, ptr %10, align 4
  br label %51

45:                                               ; preds = %40
  br label %50

46:                                               ; preds = %20
  %47 = load i16, ptr %9, align 2
  %48 = zext i16 %47 to i32
  %49 = call i32 (ptr, ...) @slurm_error(ptr noundef @.str.68, i32 noundef %48)
  br label %50

50:                                               ; preds = %46, %45, %39
  store i32 0, ptr %3, align 4
  store i32 1, ptr %10, align 4
  br label %51

51:                                               ; preds = %50, %44, %38, %19
  call void @llvm.lifetime.end.p0(i64 2, ptr %9) #9
  call void @llvm.lifetime.end.p0(i64 8, ptr %8) #9
  call void @llvm.lifetime.end.p0(i64 4, ptr %7) #9
  call void @llvm.lifetime.end.p0(i64 2, ptr %6) #9
  %52 = load i32, ptr %3, align 4
  ret i32 %52
}