; Function Attrs: nounwind uwtable
define internal range(i32 0, 2) i32 @_purge_agent_list_req(ptr noundef %0, ptr noundef readonly captures(none) %1) #0 {
  %3 = alloca i16, align 2
  call void @llvm.lifetime.start.p0(i64 2, ptr nonnull %3) #13
  %4 = getelementptr inbounds nuw i8, ptr %0, i64 20
  %5 = load i32, ptr %4, align 4
  %6 = icmp ult i32 %5, 2
  br i1 %6, label %20, label %7

7:                                                ; preds = %2
  %8 = load i16, ptr %1, align 2
  store i32 0, ptr %4, align 4
  %9 = call i32 @slurm_unpack16(ptr noundef nonnull %3, ptr noundef nonnull %0) #13
  store i32 %5, ptr %4, align 4
  switch i16 %8, label %16 [
    i16 1442, label %10
    i16 1425, label %13
  ]

10:                                               ; preds = %7
  %11 = load i16, ptr %3, align 2
  %12 = add i16 %11, -1441
  %or.cond = icmp ult i16 %12, 2
  br i1 %or.cond, label %20, label %19

13:                                               ; preds = %7
  %14 = load i16, ptr %3, align 2
  %15 = icmp eq i16 %14, 1425
  br i1 %15, label %20, label %19

16:                                               ; preds = %7
  %17 = zext i16 %8 to i32
  %18 = call i32 (ptr, ...) @slurm_error(ptr noundef nonnull @.str.68, i32 noundef %17) #13
  br label %19

19:                                               ; preds = %13, %10, %16
  br label %20

20:                                               ; preds = %13, %10, %2, %19
  %.0 = phi i32 [ 0, %19 ], [ 0, %2 ], [ 1, %10 ], [ 1, %13 ]
  call void @llvm.lifetime.end.p0(i64 2, ptr nonnull %3) #13
  ret i32 %.0
}